target datalayout = "e-m:e-p270:32:32-p271:32:32-p272:64:64-i64:64-i128:128-f80:128-n8:16:32:64-S128"
target triple = "x86_64-pc-linux-gnu"

%class.FileMapInfo = type { i8, i8, i8, i32, i64, ptr, ptr, ptr }

@.str.132 = private unnamed_addr constant [40 x i8] c"Unable to write to shared archive file.\00", align 1
@.str.133 = private unnamed_addr constant [41 x i8] c"Unable to close the shared archive file.\00", align 1

; Function Attrs: mustprogress nounwind uwtable
define hidden void @_ZN11FileMapInfo5closeEv(ptr noundef nonnull align 8 dereferenceable(40) %0) #1 align 2 {
  %2 = alloca ptr, align 8
  store ptr %0, ptr %2, align 8
  %3 = load ptr, ptr %2, align 8
  %4 = getelementptr inbounds %class.FileMapInfo, ptr %3, i32 0, i32 1
  %5 = load i8, ptr %4, align 1
  %6 = trunc i8 %5 to i1
  br i1 %6, label %7, label %16

7:                                                ; preds = %1
  %8 = getelementptr inbounds %class.FileMapInfo, ptr %3, i32 0, i32 3
  %9 = load i32, ptr %8, align 4
  %10 = call i32 @close(i32 noundef %9)
  %11 = icmp slt i32 %10, 0
  br i1 %11, label %12, label %13

12:                                               ; preds = %7
  call void @_ZN15MetaspaceShared27unrecoverable_loading_errorEPKc(ptr noundef @.str.133)
  br label %13

13:                                               ; preds = %12, %7
  %14 = getelementptr inbounds %class.FileMapInfo, ptr %3, i32 0, i32 1
  store i8 0, ptr %14, align 1
  %15 = getelementptr inbounds %class.FileMapInfo, ptr %3, i32 0, i32 3
  store i32 -1, ptr %15, align 4
  br label %16

16:                                               ; preds = %13, %1
  ret void
}

; Function Attrs: mustprogress nounwind uwtable
define hidden void @_ZN11FileMapInfo11write_bytesEPKvm(ptr noundef nonnull align 8 dereferenceable(40) %0, ptr noundef %1, i64 noundef %2) #1 align 2 {
  %4 = alloca ptr, align 8
  %5 = alloca ptr, align 8
  %6 = alloca i64, align 8
  store ptr %0, ptr %4, align 8
  store ptr %1, ptr %5, align 8
  store i64 %2, ptr %6, align 8
  %7 = load ptr, ptr %4, align 8
  %8 = getelementptr inbounds %class.FileMapInfo, ptr %7, i32 0, i32 3
  %9 = load i32, ptr %8, align 4
  %10 = load ptr, ptr %5, align 8
  %11 = load i64, ptr %6, align 8
  %12 = call noundef zeroext i1 @_ZN2os5writeEiPKvm(i32 noundef %9, ptr noundef %10, i64 noundef %11)
  br i1 %12, label %17, label %13

13:                                               ; preds = %3
  call void @_ZN11FileMapInfo5closeEv(ptr noundef nonnull align 8 dereferenceable(40) %7)
  %14 = getelementptr inbounds %class.FileMapInfo, ptr %7, i32 0, i32 5
  %15 = load ptr, ptr %14, align 8
  %16 = call i32 @remove(ptr noundef %15) #13
  call void @_ZN15MetaspaceShared13writing_errorEPKc(ptr noundef @.str.132)
  br label %17

17:                                               ; preds = %13, %3
  %18 = load i64, ptr %6, align 8
  %19 = getelementptr inbounds %class.FileMapInfo, ptr %7, i32 0, i32 4
  %20 = load i64, ptr %19, align 8
  %21 = add i64 %20, %18
  store i64 %21, ptr %19, align 8
  ret void
}