; Function Attrs: mustprogress nounwind uwtable
define hidden void @_ZN11FileMapInfo11write_bytesEPKvm(ptr nocapture noundef nonnull align 8 dereferenceable(40) %0, ptr noundef %1, i64 noundef %2) local_unnamed_addr #0 align 2 {
  %4 = getelementptr inbounds i8, ptr %0, i64 4
  %5 = load i32, ptr %4, align 4
  %6 = tail call noundef zeroext i1 @_ZN2os5writeEiPKvm(i32 noundef %5, ptr noundef %1, i64 noundef %2) #25
  br i1 %6, label %20, label %7

7:                                                ; preds = %3
  %8 = getelementptr inbounds i8, ptr %0, i64 1
  %9 = load i8, ptr %8, align 1
  %10 = trunc i8 %9 to i1
  br i1 %10, label %11, label %_ZN11FileMapInfo5closeEv.exit

11:                                               ; preds = %7
  %12 = load i32, ptr %4, align 4
  %13 = tail call i32 @close(i32 noundef %12) #25
  %14 = icmp slt i32 %13, 0
  br i1 %14, label %15, label %16

15:                                               ; preds = %11
  tail call void @_ZN15MetaspaceShared27unrecoverable_loading_errorEPKc(ptr noundef nonnull @.str.133) #25
  br label %16

16:                                               ; preds = %15, %11
  store i8 0, ptr %8, align 1
  store i32 -1, ptr %4, align 4
  br label %_ZN11FileMapInfo5closeEv.exit

_ZN11FileMapInfo5closeEv.exit:                    ; preds = %7, %16
  %17 = getelementptr inbounds i8, ptr %0, i64 16
  %18 = load ptr, ptr %17, align 8
  %19 = tail call i32 @remove(ptr noundef %18) #25
  tail call void @_ZN15MetaspaceShared13writing_errorEPKc(ptr noundef nonnull @.str.132) #25
  br label %20

20:                                               ; preds = %_ZN11FileMapInfo5closeEv.exit, %3
  %21 = getelementptr inbounds i8, ptr %0, i64 8
  %22 = load i64, ptr %21, align 8
  %23 = add i64 %22, %2
  store i64 %23, ptr %21, align 8
  ret void
}